target datalayout = "e-m:e-p270:32:32-p271:32:32-p272:64:64-i64:64-i128:128-f80:128-n8:16:32:64-S128"
target triple = "x86_64-pc-linux-gnu"

%struct.__loadu_si128 = type { <2 x i64> }
%struct.__storeu_si128 = type { <2 x i64> }

; Function Attrs: alwaysinline nounwind uwtable
define internal <2 x i64> @_mm_madd_epi16(<2 x i64> noundef %0, <2 x i64> noundef %1) #3 {
  %3 = alloca <2 x i64>, align 16
  %4 = alloca <2 x i64>, align 16
  store <2 x i64> %0, ptr %3, align 16, !tbaa !11
  store <2 x i64> %1, ptr %4, align 16, !tbaa !11
  %5 = load <2 x i64>, ptr %3, align 16, !tbaa !11
  %6 = bitcast <2 x i64> %5 to <8 x i16>
  %7 = load <2 x i64>, ptr %4, align 16, !tbaa !11
  %8 = bitcast <2 x i64> %7 to <8 x i16>
  %9 = call <4 x i32> @llvm.x86.sse2.pmadd.wd(<8 x i16> %6, <8 x i16> %8)
  %10 = bitcast <4 x i32> %9 to <2 x i64>
  ret <2 x i64> %10
}

; Function Attrs: alwaysinline nounwind uwtable
define internal <2 x i64> @_mm_unpackhi_epi8(<2 x i64> noundef %0, <2 x i64> noundef %1) #3 {
  %3 = alloca <2 x i64>, align 16
  %4 = alloca <2 x i64>, align 16
  store <2 x i64> %0, ptr %3, align 16, !tbaa !11
  store <2 x i64> %1, ptr %4, align 16, !tbaa !11
  %5 = load <2 x i64>, ptr %3, align 16, !tbaa !11
  %6 = bitcast <2 x i64> %5 to <16 x i8>
  %7 = load <2 x i64>, ptr %4, align 16, !tbaa !11
  %8 = bitcast <2 x i64> %7 to <16 x i8>
  %9 = shufflevector <16 x i8> %6, <16 x i8> %8, <16 x i32> <i32 8, i32 24, i32 9, i32 25, i32 10, i32 26, i32 11, i32 27, i32 12, i32 28, i32 13, i32 29, i32 14, i32 30, i32 15, i32 31>
  %10 = bitcast <16 x i8> %9 to <2 x i64>
  ret <2 x i64> %10
}

; Function Attrs: alwaysinline nounwind uwtable
define internal <2 x i64> @_mm_unpacklo_epi8(<2 x i64> noundef %0, <2 x i64> noundef %1) #3 {
  %3 = alloca <2 x i64>, align 16
  %4 = alloca <2 x i64>, align 16
  store <2 x i64> %0, ptr %3, align 16, !tbaa !11
  store <2 x i64> %1, ptr %4, align 16, !tbaa !11
  %5 = load <2 x i64>, ptr %3, align 16, !tbaa !11
  %6 = bitcast <2 x i64> %5 to <16 x i8>
  %7 = load <2 x i64>, ptr %4, align 16, !tbaa !11
  %8 = bitcast <2 x i64> %7 to <16 x i8>
  %9 = shufflevector <16 x i8> %6, <16 x i8> %8, <16 x i32> <i32 0, i32 16, i32 1, i32 17, i32 2, i32 18, i32 3, i32 19, i32 4, i32 20, i32 5, i32 21, i32 6, i32 22, i32 7, i32 23>
  %10 = bitcast <16 x i8> %9 to <2 x i64>
  ret <2 x i64> %10
}

; Function Attrs: alwaysinline nounwind uwtable
define internal <2 x i64> @_mm_or_si128(<2 x i64> noundef %0, <2 x i64> noundef %1) #3 {
  %3 = alloca <2 x i64>, align 16
  %4 = alloca <2 x i64>, align 16
  store <2 x i64> %0, ptr %3, align 16, !tbaa !11
  store <2 x i64> %1, ptr %4, align 16, !tbaa !11
  %5 = load <2 x i64>, ptr %3, align 16, !tbaa !11
  %6 = load <2 x i64>, ptr %4, align 16, !tbaa !11
  %7 = or <2 x i64> %5, %6
  ret <2 x i64> %7
}

; Function Attrs: alwaysinline nounwind uwtable
define internal <2 x i64> @_mm_subs_epu8(<2 x i64> noundef %0, <2 x i64> noundef %1) #3 {
  %3 = alloca <2 x i64>, align 16
  %4 = alloca <2 x i64>, align 16
  store <2 x i64> %0, ptr %3, align 16, !tbaa !11
  store <2 x i64> %1, ptr %4, align 16, !tbaa !11
  %5 = load <2 x i64>, ptr %3, align 16, !tbaa !11
  %6 = bitcast <2 x i64> %5 to <16 x i8>
  %7 = load <2 x i64>, ptr %4, align 16, !tbaa !11
  %8 = bitcast <2 x i64> %7 to <16 x i8>
  %9 = call <16 x i8> @llvm.usub.sat.v16i8(<16 x i8> %6, <16 x i8> %8)
  %10 = bitcast <16 x i8> %9 to <2 x i64>
  ret <2 x i64> %10
}

; Function Attrs: alwaysinline nounwind uwtable
define internal void @_mm_storeu_si128(ptr noundef %0, <2 x i64> noundef %1) #3 {
  %3 = alloca ptr, align 8
  %4 = alloca <2 x i64>, align 16
  store ptr %0, ptr %3, align 8, !tbaa !3
  store <2 x i64> %1, ptr %4, align 16, !tbaa !11
  %5 = load <2 x i64>, ptr %4, align 16, !tbaa !11
  %6 = load ptr, ptr %3, align 8, !tbaa !3
  %7 = getelementptr inbounds nuw %struct.__storeu_si128, ptr %6, i32 0, i32 0
  store <2 x i64> %5, ptr %7, align 1, !tbaa !11
  ret void
}

; Function Attrs: alwaysinline nounwind uwtable
define internal <2 x i64> @_mm_add_epi32(<2 x i64> noundef %0, <2 x i64> noundef %1) #3 {
  %3 = alloca <2 x i64>, align 16
  %4 = alloca <2 x i64>, align 16
  store <2 x i64> %0, ptr %3, align 16, !tbaa !11
  store <2 x i64> %1, ptr %4, align 16, !tbaa !11
  %5 = load <2 x i64>, ptr %3, align 16, !tbaa !11
  %6 = bitcast <2 x i64> %5 to <4 x i32>
  %7 = load <2 x i64>, ptr %4, align 16, !tbaa !11
  %8 = bitcast <2 x i64> %7 to <4 x i32>
  %9 = add <4 x i32> %6, %8
  %10 = bitcast <4 x i32> %9 to <2 x i64>
  ret <2 x i64> %10
}

; Function Attrs: inlinehint nounwind uwtable
define internal void @SubtractAndSquare_SSE2(<2 x i64> noundef %0, <2 x i64> noundef %1, ptr noundef %2) #4 {
  %4 = alloca <2 x i64>, align 16
  %5 = alloca <2 x i64>, align 16
  %6 = alloca ptr, align 8
  %7 = alloca <2 x i64>, align 16
  %8 = alloca <2 x i64>, align 16
  %9 = alloca <2 x i64>, align 16
  %10 = alloca <2 x i64>, align 16
  %11 = alloca <2 x i64>, align 16
  %12 = alloca <2 x i64>, align 16
  %13 = alloca <2 x i64>, align 16
  %14 = alloca <2 x i64>, align 16
  store <2 x i64> %0, ptr %4, align 16, !tbaa !11
  store <2 x i64> %1, ptr %5, align 16, !tbaa !11
  store ptr %2, ptr %6, align 8, !tbaa !3
  call void @llvm.lifetime.start.p0(i64 16, ptr %7) #8
  %15 = load <2 x i64>, ptr %4, align 16, !tbaa !11
  %16 = load <2 x i64>, ptr %5, align 16, !tbaa !11
  %17 = call <2 x i64> @_mm_subs_epu8(<2 x i64> noundef %15, <2 x i64> noundef %16)
  store <2 x i64> %17, ptr %7, align 16, !tbaa !11
  call void @llvm.lifetime.start.p0(i64 16, ptr %8) #8
  %18 = load <2 x i64>, ptr %5, align 16, !tbaa !11
  %19 = load <2 x i64>, ptr %4, align 16, !tbaa !11
  %20 = call <2 x i64> @_mm_subs_epu8(<2 x i64> noundef %18, <2 x i64> noundef %19)
  store <2 x i64> %20, ptr %8, align 16, !tbaa !11
  call void @llvm.lifetime.start.p0(i64 16, ptr %9) #8
  %21 = load <2 x i64>, ptr %7, align 16, !tbaa !11
  %22 = load <2 x i64>, ptr %8, align 16, !tbaa !11
  %23 = call <2 x i64> @_mm_or_si128(<2 x i64> noundef %21, <2 x i64> noundef %22)
  store <2 x i64> %23, ptr %9, align 16, !tbaa !11
  call void @llvm.lifetime.start.p0(i64 16, ptr %10) #8
  %24 = call <2 x i64> @_mm_setzero_si128()
  store <2 x i64> %24, ptr %10, align 16, !tbaa !11
  call void @llvm.lifetime.start.p0(i64 16, ptr %11) #8
  %25 = load <2 x i64>, ptr %9, align 16, !tbaa !11
  %26 = load <2 x i64>, ptr %10, align 16, !tbaa !11
  %27 = call <2 x i64> @_mm_unpacklo_epi8(<2 x i64> noundef %25, <2 x i64> noundef %26)
  store <2 x i64> %27, ptr %11, align 16, !tbaa !11
  call void @llvm.lifetime.start.p0(i64 16, ptr %12) #8
  %28 = load <2 x i64>, ptr %9, align 16, !tbaa !11
  %29 = load <2 x i64>, ptr %10, align 16, !tbaa !11
  %30 = call <2 x i64> @_mm_unpackhi_epi8(<2 x i64> noundef %28, <2 x i64> noundef %29)
  store <2 x i64> %30, ptr %12, align 16, !tbaa !11
  call void @llvm.lifetime.start.p0(i64 16, ptr %13) #8
  %31 = load <2 x i64>, ptr %11, align 16, !tbaa !11
  %32 = load <2 x i64>, ptr %11, align 16, !tbaa !11
  %33 = call <2 x i64> @_mm_madd_epi16(<2 x i64> noundef %31, <2 x i64> noundef %32)
  store <2 x i64> %33, ptr %13, align 16, !tbaa !11
  call void @llvm.lifetime.start.p0(i64 16, ptr %14) #8
  %34 = load <2 x i64>, ptr %12, align 16, !tbaa !11
  %35 = load <2 x i64>, ptr %12, align 16, !tbaa !11
  %36 = call <2 x i64> @_mm_madd_epi16(<2 x i64> noundef %34, <2 x i64> noundef %35)
  store <2 x i64> %36, ptr %14, align 16, !tbaa !11
  %37 = load <2 x i64>, ptr %13, align 16, !tbaa !11
  %38 = load <2 x i64>, ptr %14, align 16, !tbaa !11
  %39 = call <2 x i64> @_mm_add_epi32(<2 x i64> noundef %37, <2 x i64> noundef %38)
  %40 = load ptr, ptr %6, align 8, !tbaa !3
  store <2 x i64> %39, ptr %40, align 16, !tbaa !11
  call void @llvm.lifetime.end.p0(i64 16, ptr %14) #8
  call void @llvm.lifetime.end.p0(i64 16, ptr %13) #8
  call void @llvm.lifetime.end.p0(i64 16, ptr %12) #8
  call void @llvm.lifetime.end.p0(i64 16, ptr %11) #8
  call void @llvm.lifetime.end.p0(i64 16, ptr %10) #8
  call void @llvm.lifetime.end.p0(i64 16, ptr %9) #8
  call void @llvm.lifetime.end.p0(i64 16, ptr %8) #8
  call void @llvm.lifetime.end.p0(i64 16, ptr %7) #8
  ret void
}

; Function Attrs: alwaysinline nounwind uwtable
define internal <2 x i64> @_mm_loadu_si128(ptr noundef %0) #3 {
  %2 = alloca ptr, align 8
  store ptr %0, ptr %2, align 8, !tbaa !3
  %3 = load ptr, ptr %2, align 8, !tbaa !3
  %4 = getelementptr inbounds nuw %struct.__loadu_si128, ptr %3, i32 0, i32 0
  %5 = load <2 x i64>, ptr %4, align 1, !tbaa !11
  ret <2 x i64> %5
}

; Function Attrs: alwaysinline nounwind uwtable
define internal <2 x i64> @_mm_setzero_si128() #3 {
  %1 = alloca <2 x i64>, align 16
  store <2 x i64> zeroinitializer, ptr %1, align 16, !tbaa !11
  %2 = load <2 x i64>, ptr %1, align 16, !tbaa !11
  ret <2 x i64> %2
}

; Function Attrs: nounwind uwtable
define internal i32 @AccumulateSSE_SSE2(ptr noundef %0, ptr noundef %1, i32 noundef %2) #1 {
  %4 = alloca ptr, align 8
  %5 = alloca ptr, align 8
  %6 = alloca i32, align 4
  %7 = alloca i32, align 4
  %8 = alloca i32, align 4
  %9 = alloca i32, align 4
  %10 = alloca [4 x i32], align 16
  %11 = alloca <2 x i64>, align 16
  %12 = alloca <2 x i64>, align 16
  %13 = alloca <2 x i64>, align 16
  %14 = alloca <2 x i64>, align 16
  %15 = alloca <2 x i64>, align 16
  %16 = alloca <2 x i64>, align 16
  %17 = alloca <2 x i64>, align 16
  %18 = alloca i32, align 4
  store ptr %0, ptr %4, align 8, !tbaa !7
  store ptr %1, ptr %5, align 8, !tbaa !7
  store i32 %2, ptr %6, align 4, !tbaa !9
  call void @llvm.lifetime.start.p0(i64 4, ptr %7) #8
  store i32 0, ptr %7, align 4, !tbaa !9
  call void @llvm.lifetime.start.p0(i64 4, ptr %8) #8
  store i32 0, ptr %8, align 4, !tbaa !9
  %19 = load i32, ptr %6, align 4, !tbaa !9
  %20 = icmp sge i32 %19, 16
  br i1 %20, label %21, label %97

21:                                               ; preds = %3
  call void @llvm.lifetime.start.p0(i64 4, ptr %9) #8
  %22 = load i32, ptr %6, align 4, !tbaa !9
  %23 = sub nsw i32 %22, 32
  store i32 %23, ptr %9, align 4, !tbaa !9
  call void @llvm.lifetime.start.p0(i64 16, ptr %10) #8
  call void @llvm.lifetime.start.p0(i64 16, ptr %11) #8
  call void @llvm.lifetime.start.p0(i64 16, ptr %12) #8
  %24 = call <2 x i64> @_mm_setzero_si128()
  store <2 x i64> %24, ptr %12, align 16, !tbaa !11
  call void @llvm.lifetime.start.p0(i64 16, ptr %13) #8
  %25 = load ptr, ptr %4, align 8, !tbaa !7
  %26 = load i32, ptr %7, align 4, !tbaa !9
  %27 = sext i32 %26 to i64
  %28 = getelementptr inbounds i8, ptr %25, i64 %27
  %29 = call <2 x i64> @_mm_loadu_si128(ptr noundef %28)
  store <2 x i64> %29, ptr %13, align 16, !tbaa !11
  call void @llvm.lifetime.start.p0(i64 16, ptr %14) #8
  %30 = load ptr, ptr %5, align 8, !tbaa !7
  %31 = load i32, ptr %7, align 4, !tbaa !9
  %32 = sext i32 %31 to i64
  %33 = getelementptr inbounds i8, ptr %30, i64 %32
  %34 = call <2 x i64> @_mm_loadu_si128(ptr noundef %33)
  store <2 x i64> %34, ptr %14, align 16, !tbaa !11
  %35 = load i32, ptr %7, align 4, !tbaa !9
  %36 = add nsw i32 %35, 16
  store i32 %36, ptr %7, align 4, !tbaa !9
  br label %37

37:                                               ; preds = %41, %21
  %38 = load i32, ptr %7, align 4, !tbaa !9
  %39 = load i32, ptr %9, align 4, !tbaa !9
  %40 = icmp sle i32 %38, %39
  br i1 %40, label %41, label %76

41:                                               ; preds = %37
  call void @llvm.lifetime.start.p0(i64 16, ptr %15) #8
  %42 = load ptr, ptr %4, align 8, !tbaa !7
  %43 = load i32, ptr %7, align 4, !tbaa !9
  %44 = sext i32 %43 to i64
  %45 = getelementptr inbounds i8, ptr %42, i64 %44
  %46 = call <2 x i64> @_mm_loadu_si128(ptr noundef %45)
  store <2 x i64> %46, ptr %15, align 16, !tbaa !11
  call void @llvm.lifetime.start.p0(i64 16, ptr %16) #8
  %47 = load ptr, ptr %5, align 8, !tbaa !7
  %48 = load i32, ptr %7, align 4, !tbaa !9
  %49 = sext i32 %48 to i64
  %50 = getelementptr inbounds i8, ptr %47, i64 %49
  %51 = call <2 x i64> @_mm_loadu_si128(ptr noundef %50)
  store <2 x i64> %51, ptr %16, align 16, !tbaa !11
  call void @llvm.lifetime.start.p0(i64 16, ptr %17) #8
  %52 = load i32, ptr %7, align 4, !tbaa !9
  %53 = add nsw i32 %52, 16
  store i32 %53, ptr %7, align 4, !tbaa !9
  %54 = load <2 x i64>, ptr %13, align 16, !tbaa !11
  %55 = load <2 x i64>, ptr %14, align 16, !tbaa !11
  call void @SubtractAndSquare_SSE2(<2 x i64> noundef %54, <2 x i64> noundef %55, ptr noundef %11)
  %56 = load <2 x i64>, ptr %12, align 16, !tbaa !11
  %57 = load <2 x i64>, ptr %11, align 16, !tbaa !11
  %58 = call <2 x i64> @_mm_add_epi32(<2 x i64> noundef %56, <2 x i64> noundef %57)
  store <2 x i64> %58, ptr %12, align 16, !tbaa !11
  %59 = load ptr, ptr %4, align 8, !tbaa !7
  %60 = load i32, ptr %7, align 4, !tbaa !9
  %61 = sext i32 %60 to i64
  %62 = getelementptr inbounds i8, ptr %59, i64 %61
  %63 = call <2 x i64> @_mm_loadu_si128(ptr noundef %62)
  store <2 x i64> %63, ptr %13, align 16, !tbaa !11
  %64 = load ptr, ptr %5, align 8, !tbaa !7
  %65 = load i32, ptr %7, align 4, !tbaa !9
  %66 = sext i32 %65 to i64
  %67 = getelementptr inbounds i8, ptr %64, i64 %66
  %68 = call <2 x i64> @_mm_loadu_si128(ptr noundef %67)
  store <2 x i64> %68, ptr %14, align 16, !tbaa !11
  %69 = load i32, ptr %7, align 4, !tbaa !9
  %70 = add nsw i32 %69, 16
  store i32 %70, ptr %7, align 4, !tbaa !9
  %71 = load <2 x i64>, ptr %15, align 16, !tbaa !11
  %72 = load <2 x i64>, ptr %16, align 16, !tbaa !11
  call void @SubtractAndSquare_SSE2(<2 x i64> noundef %71, <2 x i64> noundef %72, ptr noundef %17)
  %73 = load <2 x i64>, ptr %12, align 16, !tbaa !11
  %74 = load <2 x i64>, ptr %17, align 16, !tbaa !11
  %75 = call <2 x i64> @_mm_add_epi32(<2 x i64> noundef %73, <2 x i64> noundef %74)
  store <2 x i64> %75, ptr %12, align 16, !tbaa !11
  call void @llvm.lifetime.end.p0(i64 16, ptr %17) #8
  call void @llvm.lifetime.end.p0(i64 16, ptr %16) #8
  call void @llvm.lifetime.end.p0(i64 16, ptr %15) #8
  br label %37, !llvm.loop !12

76:                                               ; preds = %37
  %77 = load <2 x i64>, ptr %13, align 16, !tbaa !11
  %78 = load <2 x i64>, ptr %14, align 16, !tbaa !11
  call void @SubtractAndSquare_SSE2(<2 x i64> noundef %77, <2 x i64> noundef %78, ptr noundef %11)
  %79 = load <2 x i64>, ptr %12, align 16, !tbaa !11
  %80 = load <2 x i64>, ptr %11, align 16, !tbaa !11
  %81 = call <2 x i64> @_mm_add_epi32(<2 x i64> noundef %79, <2 x i64> noundef %80)
  store <2 x i64> %81, ptr %12, align 16, !tbaa !11
  %82 = getelementptr inbounds [4 x i32], ptr %10, i64 0, i64 0
  %83 = load <2 x i64>, ptr %12, align 16, !tbaa !11
  call void @_mm_storeu_si128(ptr noundef %82, <2 x i64> noundef %83)
  %84 = getelementptr inbounds [4 x i32], ptr %10, i64 0, i64 3
  %85 = load i32, ptr %84, align 4, !tbaa !9
  %86 = getelementptr inbounds [4 x i32], ptr %10, i64 0, i64 2
  %87 = load i32, ptr %86, align 8, !tbaa !9
  %88 = add nsw i32 %85, %87
  %89 = getelementptr inbounds [4 x i32], ptr %10, i64 0, i64 1
  %90 = load i32, ptr %89, align 4, !tbaa !9
  %91 = add nsw i32 %88, %90
  %92 = getelementptr inbounds [4 x i32], ptr %10, i64 0, i64 0
  %93 = load i32, ptr %92, align 16, !tbaa !9
  %94 = add nsw i32 %91, %93
  %95 = load i32, ptr %8, align 4, !tbaa !9
  %96 = add i32 %95, %94
  store i32 %96, ptr %8, align 4, !tbaa !9
  call void @llvm.lifetime.end.p0(i64 16, ptr %14) #8
  call void @llvm.lifetime.end.p0(i64 16, ptr %13) #8
  call void @llvm.lifetime.end.p0(i64 16, ptr %12) #8
  call void @llvm.lifetime.end.p0(i64 16, ptr %11) #8
  call void @llvm.lifetime.end.p0(i64 16, ptr %10) #8
  call void @llvm.lifetime.end.p0(i64 4, ptr %9) #8
  br label %97

97:                                               ; preds = %76, %3
  br label %98

98:                                               ; preds = %121, %97
  %99 = load i32, ptr %7, align 4, !tbaa !9
  %100 = load i32, ptr %6, align 4, !tbaa !9
  %101 = icmp slt i32 %99, %100
  br i1 %101, label %102, label %124

102:                                              ; preds = %98
  call void @llvm.lifetime.start.p0(i64 4, ptr %18) #8
  %103 = load ptr, ptr %4, align 8, !tbaa !7
  %104 = load i32, ptr %7, align 4, !tbaa !9
  %105 = sext i32 %104 to i64
  %106 = getelementptr inbounds i8, ptr %103, i64 %105
  %107 = load i8, ptr %106, align 1, !tbaa !11
  %108 = zext i8 %107 to i32
  %109 = load ptr, ptr %5, align 8, !tbaa !7
  %110 = load i32, ptr %7, align 4, !tbaa !9
  %111 = sext i32 %110 to i64
  %112 = getelementptr inbounds i8, ptr %109, i64 %111
  %113 = load i8, ptr %112, align 1, !tbaa !11
  %114 = zext i8 %113 to i32
  %115 = sub nsw i32 %108, %114
  store i32 %115, ptr %18, align 4, !tbaa !9
  %116 = load i32, ptr %18, align 4, !tbaa !9
  %117 = load i32, ptr %18, align 4, !tbaa !9
  %118 = mul nsw i32 %116, %117
  %119 = load i32, ptr %8, align 4, !tbaa !9
  %120 = add i32 %119, %118
  store i32 %120, ptr %8, align 4, !tbaa !9
  call void @llvm.lifetime.end.p0(i64 4, ptr %18) #8
  br label %121

121:                                              ; preds = %102
  %122 = load i32, ptr %7, align 4, !tbaa !9
  %123 = add nsw i32 %122, 1
  store i32 %123, ptr %7, align 4, !tbaa !9
  br label %98, !llvm.loop !14

124:                                              ; preds = %98
  %125 = load i32, ptr %8, align 4, !tbaa !9
  call void @llvm.lifetime.end.p0(i64 4, ptr %8) #8
  call void @llvm.lifetime.end.p0(i64 4, ptr %7) #8
  ret i32 %125
}