; Function Attrs: nofree norecurse nosync nounwind memory(argmem: read) uwtable
define internal i32 @AccumulateSSE_SSE2(ptr noundef readonly captures(none) %0, ptr noundef readonly captures(none) %1, i32 noundef %2) #1 {
  %4 = icmp sgt i32 %2, 15
  br i1 %4, label %5, label %60

5:                                                ; preds = %3
  %.04354 = load <2 x i64>, ptr %1, align 1, !tbaa !7
  %.04455 = load <2 x i64>, ptr %0, align 1, !tbaa !7
  %.not56 = icmp samesign ult i32 %2, 48
  br i1 %.not56, label %._crit_edge, label %.lr.ph.preheader

.lr.ph.preheader:                                 ; preds = %5
  %6 = add nsw i32 %2, -32
  %7 = zext nneg i32 %6 to i64
  br label %.lr.ph

.lr.ph:                                           ; preds = %.lr.ph.preheader, %.lr.ph
  %indvars.iv = phi i64 [ 16, %.lr.ph.preheader ], [ %indvars.iv.next, %.lr.ph ]
  %.04459 = phi <2 x i64> [ %.04455, %.lr.ph.preheader ], [ %.044, %.lr.ph ]
  %.04358 = phi <2 x i64> [ %.04354, %.lr.ph.preheader ], [ %.043, %.lr.ph ]
  %8 = phi <4 x i32> [ zeroinitializer, %.lr.ph.preheader ], [ %39, %.lr.ph ]
  %9 = getelementptr inbounds nuw i8, ptr %0, i64 %indvars.iv
  %10 = load <16 x i8>, ptr %9, align 1, !tbaa !7
  %11 = getelementptr inbounds nuw i8, ptr %1, i64 %indvars.iv
  %12 = load <16 x i8>, ptr %11, align 1, !tbaa !7
  %13 = add nuw nsw i64 %indvars.iv, 16
  %14 = bitcast <2 x i64> %.04459 to <16 x i8>
  %15 = bitcast <2 x i64> %.04358 to <16 x i8>
  %16 = tail call <16 x i8> @llvm.usub.sat.v16i8(<16 x i8> %14, <16 x i8> %15)
  %17 = tail call <16 x i8> @llvm.usub.sat.v16i8(<16 x i8> %15, <16 x i8> %14)
  %18 = or <16 x i8> %16, %17
  %19 = shufflevector <16 x i8> %18, <16 x i8> <i8 0, i8 0, i8 0, i8 0, i8 0, i8 0, i8 0, i8 0, i8 poison, i8 poison, i8 poison, i8 poison, i8 poison, i8 poison, i8 poison, i8 poison>, <16 x i32> <i32 0, i32 16, i32 1, i32 17, i32 2, i32 18, i32 3, i32 19, i32 4, i32 20, i32 5, i32 21, i32 6, i32 22, i32 7, i32 23>
  %20 = shufflevector <16 x i8> %18, <16 x i8> <i8 poison, i8 poison, i8 poison, i8 poison, i8 poison, i8 poison, i8 poison, i8 poison, i8 0, i8 0, i8 0, i8 0, i8 0, i8 0, i8 0, i8 0>, <16 x i32> <i32 8, i32 24, i32 9, i32 25, i32 10, i32 26, i32 11, i32 27, i32 12, i32 28, i32 13, i32 29, i32 14, i32 30, i32 15, i32 31>
  %21 = bitcast <16 x i8> %19 to <8 x i16>
  %22 = tail call <4 x i32> @llvm.x86.sse2.pmadd.wd(<8 x i16> %21, <8 x i16> %21)
  %23 = bitcast <16 x i8> %20 to <8 x i16>
  %24 = tail call <4 x i32> @llvm.x86.sse2.pmadd.wd(<8 x i16> %23, <8 x i16> %23)
  %25 = getelementptr inbounds nuw i8, ptr %0, i64 %13
  %26 = getelementptr inbounds nuw i8, ptr %1, i64 %13
  %indvars.iv.next = add nuw nsw i64 %indvars.iv, 32
  %27 = tail call <16 x i8> @llvm.usub.sat.v16i8(<16 x i8> %10, <16 x i8> %12)
  %28 = tail call <16 x i8> @llvm.usub.sat.v16i8(<16 x i8> %12, <16 x i8> %10)
  %29 = or <16 x i8> %27, %28
  %30 = shufflevector <16 x i8> %29, <16 x i8> <i8 0, i8 0, i8 0, i8 0, i8 0, i8 0, i8 0, i8 0, i8 poison, i8 poison, i8 poison, i8 poison, i8 poison, i8 poison, i8 poison, i8 poison>, <16 x i32> <i32 0, i32 16, i32 1, i32 17, i32 2, i32 18, i32 3, i32 19, i32 4, i32 20, i32 5, i32 21, i32 6, i32 22, i32 7, i32 23>
  %31 = shufflevector <16 x i8> %29, <16 x i8> <i8 poison, i8 poison, i8 poison, i8 poison, i8 poison, i8 poison, i8 poison, i8 poison, i8 0, i8 0, i8 0, i8 0, i8 0, i8 0, i8 0, i8 0>, <16 x i32> <i32 8, i32 24, i32 9, i32 25, i32 10, i32 26, i32 11, i32 27, i32 12, i32 28, i32 13, i32 29, i32 14, i32 30, i32 15, i32 31>
  %32 = bitcast <16 x i8> %30 to <8 x i16>
  %33 = tail call <4 x i32> @llvm.x86.sse2.pmadd.wd(<8 x i16> %32, <8 x i16> %32)
  %34 = bitcast <16 x i8> %31 to <8 x i16>
  %35 = tail call <4 x i32> @llvm.x86.sse2.pmadd.wd(<8 x i16> %34, <8 x i16> %34)
  %36 = add <4 x i32> %22, %8
  %37 = add <4 x i32> %36, %24
  %38 = add <4 x i32> %37, %33
  %39 = add <4 x i32> %38, %35
  %.043 = load <2 x i64>, ptr %26, align 1, !tbaa !7
  %.044 = load <2 x i64>, ptr %25, align 1, !tbaa !7
  %.not = icmp samesign ugt i64 %indvars.iv.next, %7
  br i1 %.not, label %._crit_edge.loopexit, label %.lr.ph, !llvm.loop !8

._crit_edge.loopexit:                             ; preds = %.lr.ph
  %40 = trunc nuw nsw i64 %indvars.iv.next to i32
  br label %._crit_edge

._crit_edge:                                      ; preds = %._crit_edge.loopexit, %5
  %.lcssa = phi <4 x i32> [ zeroinitializer, %5 ], [ %39, %._crit_edge.loopexit ]
  %.1.lcssa = phi i32 [ 16, %5 ], [ %40, %._crit_edge.loopexit ]
  %.043.lcssa = phi <2 x i64> [ %.04354, %5 ], [ %.043, %._crit_edge.loopexit ]
  %.044.lcssa = phi <2 x i64> [ %.04455, %5 ], [ %.044, %._crit_edge.loopexit ]
  %41 = bitcast <2 x i64> %.044.lcssa to <16 x i8>
  %42 = bitcast <2 x i64> %.043.lcssa to <16 x i8>
  %43 = tail call <16 x i8> @llvm.usub.sat.v16i8(<16 x i8> %41, <16 x i8> %42)
  %44 = tail call <16 x i8> @llvm.usub.sat.v16i8(<16 x i8> %42, <16 x i8> %41)
  %45 = or <16 x i8> %43, %44
  %46 = shufflevector <16 x i8> %45, <16 x i8> <i8 0, i8 0, i8 0, i8 0, i8 0, i8 0, i8 0, i8 0, i8 poison, i8 poison, i8 poison, i8 poison, i8 poison, i8 poison, i8 poison, i8 poison>, <16 x i32> <i32 0, i32 16, i32 1, i32 17, i32 2, i32 18, i32 3, i32 19, i32 4, i32 20, i32 5, i32 21, i32 6, i32 22, i32 7, i32 23>
  %47 = shufflevector <16 x i8> %45, <16 x i8> <i8 poison, i8 poison, i8 poison, i8 poison, i8 poison, i8 poison, i8 poison, i8 poison, i8 0, i8 0, i8 0, i8 0, i8 0, i8 0, i8 0, i8 0>, <16 x i32> <i32 8, i32 24, i32 9, i32 25, i32 10, i32 26, i32 11, i32 27, i32 12, i32 28, i32 13, i32 29, i32 14, i32 30, i32 15, i32 31>
  %48 = bitcast <16 x i8> %46 to <8 x i16>
  %49 = tail call <4 x i32> @llvm.x86.sse2.pmadd.wd(<8 x i16> %48, <8 x i16> %48)
  %50 = bitcast <16 x i8> %47 to <8 x i16>
  %51 = tail call <4 x i32> @llvm.x86.sse2.pmadd.wd(<8 x i16> %50, <8 x i16> %50)
  %52 = add <4 x i32> %49, %.lcssa
  %53 = add <4 x i32> %52, %51
  %54 = shufflevector <4 x i32> %53, <4 x i32> poison, <4 x i32> <i32 3, i32 poison, i32 poison, i32 poison>
  %55 = shufflevector <4 x i32> %53, <4 x i32> poison, <4 x i32> <i32 2, i32 poison, i32 poison, i32 poison>
  %56 = add nsw <4 x i32> %54, %55
  %57 = shufflevector <4 x i32> %53, <4 x i32> poison, <4 x i32> <i32 1, i32 poison, i32 poison, i32 poison>
  %shift87 = add nsw <4 x i32> %56, %57
  %58 = add nsw <4 x i32> %shift87, %53
  %59 = extractelement <4 x i32> %58, i64 0
  br label %60

60:                                               ; preds = %._crit_edge, %3
  %.040 = phi i32 [ %59, %._crit_edge ], [ 0, %3 ]
  %.0 = phi i32 [ %.1.lcssa, %._crit_edge ], [ 0, %3 ]
  %61 = icmp slt i32 %.0, %2
  br i1 %61, label %.lr.ph66.preheader, label %._crit_edge67

.lr.ph66.preheader:                               ; preds = %60
  %62 = zext nneg i32 %.0 to i64
  %wide.trip.count = zext i32 %2 to i64
  br label %.lr.ph66

.lr.ph66:                                         ; preds = %.lr.ph66.preheader, %.lr.ph66
  %indvars.iv75 = phi i64 [ %62, %.lr.ph66.preheader ], [ %indvars.iv.next76, %.lr.ph66 ]
  %.14163 = phi i32 [ %.040, %.lr.ph66.preheader ], [ %71, %.lr.ph66 ]
  %63 = getelementptr inbounds nuw i8, ptr %0, i64 %indvars.iv75
  %64 = load i8, ptr %63, align 1, !tbaa !7
  %65 = zext i8 %64 to i32
  %66 = getelementptr inbounds nuw i8, ptr %1, i64 %indvars.iv75
  %67 = load i8, ptr %66, align 1, !tbaa !7
  %68 = zext i8 %67 to i32
  %69 = sub nsw i32 %65, %68
  %70 = mul nsw i32 %69, %69
  %71 = add i32 %70, %.14163
  %indvars.iv.next76 = add nuw nsw i64 %indvars.iv75, 1
  %exitcond.not = icmp eq i64 %indvars.iv.next76, %wide.trip.count
  br i1 %exitcond.not, label %._crit_edge67, label %.lr.ph66, !llvm.loop !10

._crit_edge67:                                    ; preds = %.lr.ph66, %60
  %.141.lcssa = phi i32 [ %.040, %60 ], [ %71, %.lr.ph66 ]
  ret i32 %.141.lcssa
}